target datalayout = "e-m:e-p270:32:32-p271:32:32-p272:64:64-i64:64-i128:128-f80:128-n8:16:32:64-S128"
target triple = "x86_64-pc-linux-gnu"

%struct.dlist_head = type { %struct.dlist_node }
%struct.dlist_node = type { ptr, ptr }
%struct.ResourceOwnerDesc = type { ptr, i32, i32, ptr, ptr }
%struct.CachedPlanSource = type { i32, ptr, ptr, i32, ptr, i32, ptr, ptr, i32, i8, ptr, ptr, ptr, ptr, ptr, ptr, ptr, i32, i8, i8, ptr, i8, i8, i8, i8, i32, %struct.dlist_node, double, double, i64, i64 }
%struct.CachedPlan = type { i32, ptr, i8, i8, i8, i32, i8, i32, i32, i32, ptr }

@.str.2 = private unnamed_addr constant [33 x i8] c"cannot save one-shot cached plan\00", align 1
@.str.3 = private unnamed_addr constant [12 x i8] c"plancache.c\00", align 1
@__func__.SaveCachedPlan = private unnamed_addr constant [15 x i8] c"SaveCachedPlan\00", align 1
@CacheMemoryContext = external global ptr, align 8
@saved_plan_list = internal global %struct.dlist_head { %struct.dlist_node { ptr @saved_plan_list, ptr @saved_plan_list } }, align 8
@planref_resowner_desc = internal constant %struct.ResourceOwnerDesc { ptr @.str.11, i32 3, i32 300, ptr @ResOwnerReleaseCachedPlan, ptr null }, align 8

; Function Attrs: inlinehint nounwind uwtable
define internal i64 @PointerGetDatum(ptr noundef %0) #3 {
  %2 = alloca ptr, align 8
  store ptr %0, ptr %2, align 8
  %3 = load ptr, ptr %2, align 8
  %4 = ptrtoint ptr %3 to i64
  ret i64 %4
}

; Function Attrs: inlinehint nounwind uwtable
define internal void @ResourceOwnerForgetPlanCacheRef(ptr noundef %0, ptr noundef %1) #3 {
  %3 = alloca ptr, align 8
  %4 = alloca ptr, align 8
  store ptr %0, ptr %3, align 8
  store ptr %1, ptr %4, align 8
  %5 = load ptr, ptr %3, align 8
  %6 = load ptr, ptr %4, align 8
  %7 = call i64 @PointerGetDatum(ptr noundef %6)
  call void @ResourceOwnerForget(ptr noundef %5, i64 noundef %7, ptr noundef @planref_resowner_desc)
  ret void
}

; Function Attrs: inlinehint nounwind uwtable
define internal void @dlist_init(ptr noundef %0) #3 {
  %2 = alloca ptr, align 8
  store ptr %0, ptr %2, align 8
  %3 = load ptr, ptr %2, align 8
  %4 = getelementptr inbounds nuw %struct.dlist_head, ptr %3, i32 0, i32 0
  %5 = load ptr, ptr %2, align 8
  %6 = getelementptr inbounds nuw %struct.dlist_head, ptr %5, i32 0, i32 0
  %7 = getelementptr inbounds nuw %struct.dlist_node, ptr %6, i32 0, i32 0
  store ptr %4, ptr %7, align 8
  %8 = load ptr, ptr %2, align 8
  %9 = getelementptr inbounds nuw %struct.dlist_head, ptr %8, i32 0, i32 0
  %10 = getelementptr inbounds nuw %struct.dlist_node, ptr %9, i32 0, i32 1
  store ptr %4, ptr %10, align 8
  ret void
}

; Function Attrs: nounwind uwtable
define dso_local void @ReleaseCachedPlan(ptr noundef %0, ptr noundef %1) #0 {
  %3 = alloca ptr, align 8
  %4 = alloca ptr, align 8
  store ptr %0, ptr %3, align 8
  store ptr %1, ptr %4, align 8
  %5 = load ptr, ptr %4, align 8
  %6 = icmp ne ptr %5, null
  br i1 %6, label %7, label %10

7:                                                ; preds = %2
  %8 = load ptr, ptr %4, align 8
  %9 = load ptr, ptr %3, align 8
  call void @ResourceOwnerForgetPlanCacheRef(ptr noundef %8, ptr noundef %9)
  br label %10

10:                                               ; preds = %7, %2
  %11 = load ptr, ptr %3, align 8
  %12 = getelementptr inbounds nuw %struct.CachedPlan, ptr %11, i32 0, i32 9
  %13 = load i32, ptr %12, align 4
  %14 = add i32 %13, -1
  store i32 %14, ptr %12, align 4
  %15 = load ptr, ptr %3, align 8
  %16 = getelementptr inbounds nuw %struct.CachedPlan, ptr %15, i32 0, i32 9
  %17 = load i32, ptr %16, align 4
  %18 = icmp eq i32 %17, 0
  br i1 %18, label %19, label %31

19:                                               ; preds = %10
  %20 = load ptr, ptr %3, align 8
  %21 = getelementptr inbounds nuw %struct.CachedPlan, ptr %20, i32 0, i32 0
  store i32 0, ptr %21, align 8
  %22 = load ptr, ptr %3, align 8
  %23 = getelementptr inbounds nuw %struct.CachedPlan, ptr %22, i32 0, i32 2
  %24 = load i8, ptr %23, align 8, !range !4, !noundef !5
  %25 = trunc i8 %24 to i1
  br i1 %25, label %30, label %26

26:                                               ; preds = %19
  %27 = load ptr, ptr %3, align 8
  %28 = getelementptr inbounds nuw %struct.CachedPlan, ptr %27, i32 0, i32 10
  %29 = load ptr, ptr %28, align 8
  call void @MemoryContextDelete(ptr noundef %29)
  br label %30

30:                                               ; preds = %26, %19
  br label %31

31:                                               ; preds = %30, %10
  ret void
}

; Function Attrs: inlinehint nounwind uwtable
define internal void @dlist_push_tail(ptr noundef %0, ptr noundef %1) #3 {
  %3 = alloca ptr, align 8
  %4 = alloca ptr, align 8
  store ptr %0, ptr %3, align 8
  store ptr %1, ptr %4, align 8
  %5 = load ptr, ptr %3, align 8
  %6 = getelementptr inbounds nuw %struct.dlist_head, ptr %5, i32 0, i32 0
  %7 = getelementptr inbounds nuw %struct.dlist_node, ptr %6, i32 0, i32 1
  %8 = load ptr, ptr %7, align 8
  %9 = icmp eq ptr %8, null
  br i1 %9, label %10, label %12

10:                                               ; preds = %2
  %11 = load ptr, ptr %3, align 8
  call void @dlist_init(ptr noundef %11)
  br label %12

12:                                               ; preds = %10, %2
  %13 = load ptr, ptr %3, align 8
  %14 = getelementptr inbounds nuw %struct.dlist_head, ptr %13, i32 0, i32 0
  %15 = load ptr, ptr %4, align 8
  %16 = getelementptr inbounds nuw %struct.dlist_node, ptr %15, i32 0, i32 1
  store ptr %14, ptr %16, align 8
  %17 = load ptr, ptr %3, align 8
  %18 = getelementptr inbounds nuw %struct.dlist_head, ptr %17, i32 0, i32 0
  %19 = getelementptr inbounds nuw %struct.dlist_node, ptr %18, i32 0, i32 0
  %20 = load ptr, ptr %19, align 8
  %21 = load ptr, ptr %4, align 8
  %22 = getelementptr inbounds nuw %struct.dlist_node, ptr %21, i32 0, i32 0
  store ptr %20, ptr %22, align 8
  %23 = load ptr, ptr %4, align 8
  %24 = load ptr, ptr %4, align 8
  %25 = getelementptr inbounds nuw %struct.dlist_node, ptr %24, i32 0, i32 0
  %26 = load ptr, ptr %25, align 8
  %27 = getelementptr inbounds nuw %struct.dlist_node, ptr %26, i32 0, i32 1
  store ptr %23, ptr %27, align 8
  %28 = load ptr, ptr %4, align 8
  %29 = load ptr, ptr %3, align 8
  %30 = getelementptr inbounds nuw %struct.dlist_head, ptr %29, i32 0, i32 0
  %31 = getelementptr inbounds nuw %struct.dlist_node, ptr %30, i32 0, i32 0
  store ptr %28, ptr %31, align 8
  ret void
}

; Function Attrs: nounwind uwtable
define internal void @ReleaseGenericPlan(ptr noundef %0) #0 {
  %2 = alloca ptr, align 8
  %3 = alloca ptr, align 8
  store ptr %0, ptr %2, align 8
  %4 = load ptr, ptr %2, align 8
  %5 = getelementptr inbounds nuw %struct.CachedPlanSource, ptr %4, i32 0, i32 20
  %6 = load ptr, ptr %5, align 8
  %7 = icmp ne ptr %6, null
  br i1 %7, label %8, label %15

8:                                                ; preds = %1
  call void @llvm.lifetime.start.p0(i64 8, ptr %3) #8
  %9 = load ptr, ptr %2, align 8
  %10 = getelementptr inbounds nuw %struct.CachedPlanSource, ptr %9, i32 0, i32 20
  %11 = load ptr, ptr %10, align 8
  store ptr %11, ptr %3, align 8
  %12 = load ptr, ptr %2, align 8
  %13 = getelementptr inbounds nuw %struct.CachedPlanSource, ptr %12, i32 0, i32 20
  store ptr null, ptr %13, align 8
  %14 = load ptr, ptr %3, align 8
  call void @ReleaseCachedPlan(ptr noundef %14, ptr noundef null)
  call void @llvm.lifetime.end.p0(i64 8, ptr %3) #8
  br label %15

15:                                               ; preds = %8, %1
  ret void
}

; Function Attrs: nounwind uwtable
define dso_local void @SaveCachedPlan(ptr noundef %0) #0 {
  %2 = alloca ptr, align 8
  store ptr %0, ptr %2, align 8
  %3 = load ptr, ptr %2, align 8
  %4 = getelementptr inbounds nuw %struct.CachedPlanSource, ptr %3, i32 0, i32 21
  %5 = load i8, ptr %4, align 8, !range !4, !noundef !5
  %6 = trunc i8 %5 to i1
  br i1 %6, label %7, label %17

7:                                                ; preds = %1
  br label %8

8:                                                ; preds = %7
  br i1 true, label %9, label %11

9:                                                ; preds = %8
  %10 = call zeroext i1 @errstart_cold(i32 noundef 21, ptr noundef null) #9
  br i1 %10, label %13, label %15

11:                                               ; preds = %8
  %12 = call zeroext i1 @errstart(i32 noundef 21, ptr noundef null)
  br i1 %12, label %13, label %15

13:                                               ; preds = %11, %9
  %14 = call i32 (ptr, ...) @errmsg_internal(ptr noundef @.str.2)
  call void @errfinish(ptr noundef @.str.3, i32 noundef 491, ptr noundef @__func__.SaveCachedPlan)
  br label %15

15:                                               ; preds = %13, %11, %9
  unreachable

16:                                               ; No predecessors!
  br label %17

17:                                               ; preds = %16, %1
  %18 = load ptr, ptr %2, align 8
  call void @ReleaseGenericPlan(ptr noundef %18)
  %19 = load ptr, ptr %2, align 8
  %20 = getelementptr inbounds nuw %struct.CachedPlanSource, ptr %19, i32 0, i32 11
  %21 = load ptr, ptr %20, align 8
  %22 = load ptr, ptr @CacheMemoryContext, align 8
  call void @MemoryContextSetParent(ptr noundef %21, ptr noundef %22)
  %23 = load ptr, ptr %2, align 8
  %24 = getelementptr inbounds nuw %struct.CachedPlanSource, ptr %23, i32 0, i32 26
  call void @dlist_push_tail(ptr noundef @saved_plan_list, ptr noundef %24)
  %25 = load ptr, ptr %2, align 8
  %26 = getelementptr inbounds nuw %struct.CachedPlanSource, ptr %25, i32 0, i32 23
  store i8 1, ptr %26, align 2
  ret void
}