; Function Attrs: nounwind uwtable
define dso_local void @SaveCachedPlan(ptr noundef %0) local_unnamed_addr #0 {
  %2 = getelementptr inbounds nuw i8, ptr %0, i64 144
  %3 = load i8, ptr %2, align 8, !range !4, !noundef !5
  %4 = trunc nuw i8 %3 to i1
  br i1 %4, label %5, label %8

5:                                                ; preds = %1
  %6 = tail call zeroext i1 @errstart_cold(i32 noundef 21, ptr noundef null) #10
  tail call void @llvm.assume(i1 %6)
  %7 = tail call i32 (ptr, ...) @errmsg_internal(ptr noundef nonnull @.str.2) #9
  tail call void @errfinish(ptr noundef nonnull @.str.3, i32 noundef 491, ptr noundef nonnull @__func__.SaveCachedPlan) #9
  unreachable

8:                                                ; preds = %1
  %9 = getelementptr inbounds nuw i8, ptr %0, i64 136
  %10 = load ptr, ptr %9, align 8
  %.not.i = icmp eq ptr %10, null
  br i1 %.not.i, label %ReleaseGenericPlan.exit, label %11

11:                                               ; preds = %8
  store ptr null, ptr %9, align 8
  %12 = getelementptr inbounds nuw i8, ptr %10, i64 36
  %13 = load i32, ptr %12, align 4
  %14 = add i32 %13, -1
  store i32 %14, ptr %12, align 4
  %15 = icmp eq i32 %14, 0
  br i1 %15, label %16, label %ReleaseGenericPlan.exit

16:                                               ; preds = %11
  store i32 0, ptr %10, align 8
  %17 = getelementptr inbounds nuw i8, ptr %10, i64 16
  %18 = load i8, ptr %17, align 8, !range !4, !noundef !5
  %19 = trunc nuw i8 %18 to i1
  br i1 %19, label %ReleaseGenericPlan.exit, label %20

20:                                               ; preds = %16
  %21 = getelementptr inbounds nuw i8, ptr %10, i64 40
  %22 = load ptr, ptr %21, align 8
  tail call void @MemoryContextDelete(ptr noundef %22) #9
  br label %ReleaseGenericPlan.exit

ReleaseGenericPlan.exit:                          ; preds = %8, %11, %16, %20
  %23 = getelementptr inbounds nuw i8, ptr %0, i64 80
  %24 = load ptr, ptr %23, align 8
  %25 = load ptr, ptr @CacheMemoryContext, align 8
  tail call void @MemoryContextSetParent(ptr noundef %24, ptr noundef %25) #9
  %26 = load ptr, ptr getelementptr inbounds nuw (i8, ptr @saved_plan_list, i64 8), align 8
  %27 = icmp eq ptr %26, null
  br i1 %27, label %28, label %ReleaseGenericPlan.exit.dlist_push_tail.exit_crit_edge

ReleaseGenericPlan.exit.dlist_push_tail.exit_crit_edge: ; preds = %ReleaseGenericPlan.exit
  %.pre = load ptr, ptr @saved_plan_list, align 8
  br label %dlist_push_tail.exit

28:                                               ; preds = %ReleaseGenericPlan.exit
  store ptr @saved_plan_list, ptr getelementptr inbounds nuw (i8, ptr @saved_plan_list, i64 8), align 8
  br label %dlist_push_tail.exit

dlist_push_tail.exit:                             ; preds = %ReleaseGenericPlan.exit.dlist_push_tail.exit_crit_edge, %28
  %29 = phi ptr [ %.pre, %ReleaseGenericPlan.exit.dlist_push_tail.exit_crit_edge ], [ @saved_plan_list, %28 ]
  %30 = getelementptr inbounds nuw i8, ptr %0, i64 152
  %31 = getelementptr inbounds nuw i8, ptr %0, i64 160
  store ptr @saved_plan_list, ptr %31, align 8
  store ptr %29, ptr %30, align 8
  %32 = getelementptr inbounds nuw i8, ptr %29, i64 8
  store ptr %30, ptr %32, align 8
  store ptr %30, ptr @saved_plan_list, align 8
  %33 = getelementptr inbounds nuw i8, ptr %0, i64 146
  store i8 1, ptr %33, align 2
  ret void
}